(i__main__
DactylLUT
p0
(dp1
S'rgbarray'
p2
(lp3
I65
aI24
aI24
aI10
aI3
aI3
aI76
aI30
aI30
aI182
aI101
aI101
aI141
aI62
aI62
aI168
aI90
aI90
aI186
aI109
aI109
aI184
aI84
aI84
aI207
aI104
aI104
aI227
aI187
aI187
aI232
aI167
aI167
aI216
aI128
aI128
aI201
aI114
aI114
aI169
aI121
aI121
aI141
aI117
aI117
aI192
aI186
aI186
aI199
aI171
aI171
aI212
aI211
aI211
aI208
aI208
aI208
aI209
aI209
aI209
aI205
aI205
aI205
aI176
aI176
aI176
aI196
aI196
aI196
aI211
aI170
aI170
aI140
aI118
aI118
aI132
aI104
aI104
aI193
aI136
aI136
aI177
aI107
aI107
aI154
aI57
aI57
aI152
aI56
aI56
aI163
aI60
aI60
aI149
aI56
aI56
aI170
aI64
aI64
aI94
aI34
aI34
aI120
aI44
aI44
aI113
aI41
aI41
aI120
aI43
aI43
aI133
aI63
aI63
aI56
aI20
aI20
aI77
aI48
aI48
aI83
aI63
aI63
aI0
aI0
aI0
aI0
aI0
aI0
aI0
aI0
aI0
aI42
aI42
aI42
aI99
aI99
aI99
aI150
aI150
aI150
aI96
aI96
aI96
aI0
aI0
aI0
aI0
aI0
aI0
aI63
aI63
aI63
aI93
aI93
aI93
aI97
aI97
aI97
aI43
aI43
aI43
aI39
aI15
aI15
aI88
aI42
aI42
aI74
aI34
aI34
aI24
aI9
aI9
aI99
aI99
aI99
aI98
aI98
aI98
aI47
aI47
aI47
aI132
aI132
aI132
aI134
aI134
aI134
aI122
aI122
aI122
aI100
aI100
aI100
aI60
aI60
aI60
aI17
aI17
aI17
aI81
aI81
aI81
aI113
aI113
aI113
aI0
aI0
aI0
aI117
aI117
aI117
aI166
aI166
aI166
aI122
aI122
aI122
aI214
aI214
aI214
aI116
aI116
aI116
aI202
aI202
aI202
aI160
aI160
aI160
aI120
aI120
aI120
aI140
aI140
aI140
aI142
aI142
aI142
aI165
aI165
aI165
aI52
aI52
aI52
aI0
aI0
aI0
aI43
aI43
aI43
aI54
aI54
aI54
aI80
aI80
aI80
aI76
aI76
aI76
aI48
aI48
aI48
aI0
aI0
aI0
aI0
aI0
aI0
aI20
aI7
aI7
aI49
aI17
aI17
aI0
aI0
aI0
aI0
aI0
aI0
aI0
aI0
aI0
aI0
aI0
aI0
aI0
aI0
aI0
aI90
aI32
aI32
aI0
aI0
aI0
aI0
aI0
aI0
asS'coordFilename'
p4
S'config/dactyl-coords-big.txt'
p5
sS'textureType'
p6
I1
sS'texture'
p7
NsS'textureFilename'
p8
S'still-test/test-uv-shade-red-256.png'
p9
sS'coordsMeta'
p10
(dp11
S'count'
p12
I100
sS'min_id'
p13
I1
sS'filename'
p14
g5
sS'max_uv'
p15
(I244
I251
tp16
sS'min_uv'
p17
(I3
I12
tp18
sS'max_id'
p19
I100
ssS'coords'
p20
(lp21
(dp22
S'uv'
p23
(I183
I114
tp24
sS'id'
p25
I1
sS'face'
p26
I20
sa(dp27
g23
(I170
I96
tp28
sg25
I2
sg26
I20
sa(dp29
g23
(I194
I77
tp30
sg25
I3
sg26
I19
sa(dp31
g23
(I96
I96
tp32
sg25
I4
sg26
I18
sa(dp33
g23
(I90
I103
tp34
sg25
I5
sg26
I18
sa(dp35
g23
(I97
I114
tp36
sg25
I6
sg26
I18
sa(dp37
g23
(I111
I111
tp38
sg25
I7
sg26
I18
sa(dp39
g23
(I244
I42
tp40
sg25
I8
sg26
I25
sa(dp41
g23
(I80
I16
tp42
sg25
I9
sg26
I24
sa(dp43
g23
(I166
I222
tp44
sg25
I10
sg26
I29
sa(dp45
g23
(I172
I231
tp46
sg25
I11
sg26
I29
sa(dp47
g23
(I173
I246
tp48
sg25
I12
sg26
I29
sa(dp49
g23
(I164
I249
tp50
sg25
I13
sg26
I29
sa(dp51
g23
(I144
I246
tp52
sg25
I14
sg26
I31
sa(dp53
g23
(I123
I242
tp54
sg25
I15
sg26
I31
sa(dp55
g23
(I116
I234
tp56
sg25
I16
sg26
I31
sa(dp57
g23
(I147
I229
tp58
sg25
I17
sg26
I31
sa(dp59
g23
(I128
I218
tp60
sg25
I18
sg26
I31
sa(dp61
g23
(I139
I147
tp62
sg25
I19
sg26
I30
sa(dp63
g23
(I148
I137
tp64
sg25
I20
sg26
I30
sa(dp65
g23
(I161
I147
tp66
sg25
I21
sg26
I30
sa(dp67
g23
(I99
I16
tp68
sg25
I22
sg26
I26
sa(dp69
g23
(I36
I41
tp70
sg25
I23
sg26
I27
sa(dp71
g23
(I93
I241
tp72
sg25
I24
sg26
I28
sa(dp73
g23
(I74
I251
tp74
sg25
I25
sg26
I28
sa(dp75
g23
(I74
I244
tp76
sg25
I26
sg26
I28
sa(dp77
g23
(I97
I228
tp78
sg25
I27
sg26
I28
sa(dp79
g23
(I96
I214
tp80
sg25
I28
sg26
I28
sa(dp81
g23
(I177
I72
tp82
sg25
I29
sg26
I23
sa(dp83
g23
(I161
I71
tp84
sg25
I30
sg26
I23
sa(dp85
g23
(I191
I48
tp86
sg25
I31
sg26
I33
sa(dp87
g23
(I64
I102
tp88
sg25
I32
sg26
I22
sa(dp89
g23
(I80
I107
tp90
sg25
I33
sg26
I22
sa(dp91
g23
(I110
I45
tp92
sg25
I34
sg26
I21
sa(dp93
g23
(I10
I12
tp94
sg25
I35
sg26
I34
sa(dp95
g23
(I86
I39
tp96
sg25
I36
sg26
I35
sa(dp97
g23
(I36
I135
tp98
sg25
I37
sg26
I36
sa(dp99
g23
(I46
I150
tp100
sg25
I38
sg26
I36
sa(dp101
g23
(I189
I150
tp102
sg25
I39
sg26
I37
sa(dp103
g23
(I210
I134
tp104
sg25
I40
sg26
I38
sa(dp105
g23
(I225
I133
tp106
sg25
I41
sg26
I38
sa(dp107
g23
(I48
I174
tp108
sg25
I42
sg26
I39
sa(dp109
g23
(I34
I187
tp110
sg25
I43
sg26
I39
sa(dp111
g23
(I46
I191
tp112
sg25
I44
sg26
I39
sa(dp113
g23
(I12
I215
tp114
sg25
I45
sg26
I3
sa(dp115
g23
(I24
I231
tp116
sg25
I46
sg26
I3
sa(dp117
g23
(I16
I241
tp118
sg25
I47
sg26
I3
sa(dp119
g23
(I138
I46
tp120
sg25
I48
sg26
I4
sa(dp121
g23
(I37
I113
tp122
sg25
I49
sg26
I2
sa(dp123
g23
(I38
I95
tp124
sg25
I50
sg26
I2
sa(dp125
g23
(I15
I80
tp126
sg25
I51
sg26
I14
sa(dp127
g23
(I19
I64
tp128
sg25
I52
sg26
I14
sa(dp129
g23
(I92
I167
tp130
sg25
I53
sg26
I13
sa(dp131
g23
(I98
I183
tp132
sg25
I54
sg26
I13
sa(dp133
g23
(I106
I198
tp134
sg25
I55
sg26
I13
sa(dp135
g23
(I45
I238
tp136
sg25
I56
sg26
I32
sa(dp137
g23
(I58
I232
tp138
sg25
I57
sg26
I32
sa(dp139
g23
(I46
I215
tp140
sg25
I58
sg26
I32
sa(dp141
g23
(I3
I168
tp142
sg25
I59
sg26
I53
sa(dp143
g23
(I20
I176
tp144
sg25
I60
sg26
I53
sa(dp145
g23
(I12
I195
tp146
sg25
I61
sg26
I53
sa(dp147
g23
(I53
I82
tp148
sg25
I62
sg26
I6
sa(dp149
g23
(I54
I80
tp150
sg25
I63
sg26
I6
sa(dp151
g23
(I52
I60
tp152
sg25
I64
sg26
I6
sa(dp153
g23
(I203
I106
tp154
sg25
I65
sg26
I5
sa(dp155
g23
(I223
I74
tp156
sg25
I66
sg26
I1
sa(dp157
g23
(I192
I19
tp158
sg25
I67
sg26
I0
sa(dp159
g23
(I157
I15
tp160
sg25
I68
sg26
I8
sa(dp161
g23
(I238
I198
tp162
sg25
I69
sg26
I7
sa(dp163
g23
(I227
I233
tp164
sg25
I70
sg26
I7
sa(dp165
g23
(I244
I166
tp166
sg25
I71
sg26
I7
sa(dp167
g23
(I199
I186
tp168
sg25
I72
sg26
I9
sa(dp169
g23
(I142
I172
tp170
sg25
I73
sg26
I12
sa(dp171
g23
(I125
I189
tp172
sg25
I74
sg26
I12
sa(dp173
g23
(I146
I197
tp174
sg25
I75
sg26
I12
sa(dp175
g23
(I211
I46
tp176
sg25
I76
sg26
I17
sa(dp177
g23
(I119
I16
tp178
sg25
I77
sg26
I16
sa(dp179
g23
(I164
I42
tp180
sg25
I78
sg26
I15
sa(dp181
g23
(I66
I189
tp182
sg25
I79
sg26
I52
sa(dp183
g23
(I67
I197
tp184
sg25
I80
sg26
I52
sa(dp185
g23
(I80
I70
tp186
sg25
I81
sg26
I11
sa(dp187
g23
(I240
I109
tp188
sg25
I82
sg26
I10
sa(dp189
g23
(I108
I72
tp190
sg25
I83
sg26
I41
sa(dp191
g23
(I38
I17
tp192
sg25
I84
sg26
I42
sa(dp193
g23
(I154
I111
tp194
sg25
I85
sg26
I45
sa(dp195
g23
(I168
I194
tp196
sg25
I86
sg26
I46
sa(dp197
g23
(I172
I171
tp198
sg25
I87
sg26
I46
sa(dp199
g23
(I11
I132
tp200
sg25
I88
sg26
I47
sa(dp201
g23
(I12
I146
tp202
sg25
I89
sg26
I47
sa(dp203
g23
(I116
I145
tp204
sg25
I90
sg26
I48
sa(dp205
g23
(I121
I150
tp206
sg25
I91
sg26
I48
sa(dp207
g23
(I140
I78
tp208
sg25
I92
sg26
I51
sa(dp209
g23
(I75
I136
tp210
sg25
I93
sg26
I49
sa(dp211
g23
(I204
I226
tp212
sg25
I94
sg26
I44
sa(dp213
g23
(I204
I248
tp214
sg25
I95
sg26
I44
sa(dp215
g23
(I219
I246
tp216
sg25
I96
sg26
I44
sa(dp217
g23
(I69
I151
tp218
sg25
I97
sg26
I49
sa(dp219
g23
(I132
I102
tp220
sg25
I98
sg26
I50
sa(dp221
g23
(I58
I40
tp222
sg25
I99
sg26
I43
sa(dp223
g23
(I99
I138
tp224
sg25
I100
sg26
I40
sasS'debug'
p225
I01
sS'textureScale'
p226
F0.125
sb.