(i__main__
DactylLUT
p0
(dp1
S'rgbarray'
p2
(lp3
I0
aI0
aI0
aI0
aI0
aI0
aI0
aI0
aI0
aI0
aI0
aI0
aI0
aI0
aI0
aI0
aI0
aI0
aI0
aI0
aI0
aI0
aI0
aI0
aI0
aI0
aI0
aI0
aI0
aI0
aI0
aI0
aI0
aI0
aI0
aI0
aI0
aI0
aI0
aI164
aI164
aI164
aI40
aI40
aI40
aI80
aI80
aI80
aI109
aI109
aI109
aI56
aI56
aI56
aI128
aI128
aI128
aI0
aI0
aI0
aI57
aI57
aI57
aI109
aI109
aI109
aI132
aI132
aI132
aI109
aI109
aI109
aI73
aI73
aI73
aI42
aI42
aI42
aI180
aI180
aI180
aI230
aI230
aI230
aI218
aI218
aI218
aI194
aI194
aI194
aI73
aI73
aI73
aI51
aI51
aI51
aI0
aI0
aI0
aI0
aI0
aI0
aI84
aI84
aI84
aI132
aI132
aI132
aI167
aI167
aI167
aI169
aI169
aI169
aI128
aI128
aI128
aI69
aI69
aI69
aI0
aI0
aI0
aI0
aI0
aI0
aI96
aI96
aI96
aI98
aI98
aI98
aI144
aI144
aI144
aI37
aI37
aI37
aI221
aI221
aI221
aI0
aI0
aI0
aI96
aI96
aI96
aI207
aI207
aI207
asS'coordFilename'
p4
S'config/dactyl-coords-sml.txt'
p5
sS'textureType'
p6
I1
sS'texture'
p7
NsS'textureFilename'
p8
S'still-test/test-uv-shade-white-256.png'
p9
sS'coordsMeta'
p10
(dp11
S'count'
p12
I37
sS'min_id'
p13
I14
sS'filename'
p14
g5
sS'max_uv'
p15
(I238
I251
tp16
sS'min_uv'
p17
(I8
I12
tp18
sS'max_id'
p19
I50
ssS'coords'
p20
(lp21
(dp22
S'uv'
p23
(I79
I70
tp24
sS'id'
p25
I14
sS'face'
p26
I11
sa(dp27
g23
(I98
I185
tp28
sg25
I15
sg26
I13
sa(dp29
g23
(I16
I70
tp30
sg25
I16
sg26
I14
sa(dp31
g23
(I159
I44
tp32
sg25
I17
sg26
I15
sa(dp33
g23
(I8
I131
tp34
sg25
I18
sg26
I47
sa(dp35
g23
(I59
I182
tp36
sg25
I19
sg26
I52
sa(dp37
g23
(I105
I68
tp38
sg25
I20
sg26
I41
sa(dp39
g23
(I238
I109
tp40
sg25
I21
sg26
I10
sa(dp41
g23
(I232
I185
tp42
sg25
I22
sg26
I7
sa(dp43
g23
(I140
I175
tp44
sg25
I23
sg26
I12
sa(dp45
g23
(I232
I185
tp46
sg25
I24
sg26
I6
sa(dp47
g23
(I12
I178
tp48
sg25
I25
sg26
I53
sa(dp49
g23
(I49
I220
tp50
sg25
I26
sg26
I32
sa(dp51
g23
(I134
I238
tp52
sg25
I27
sg26
I31
sa(dp53
g23
(I163
I218
tp54
sg25
I28
sg26
I29
sa(dp55
g23
(I166
I249
tp56
sg25
I29
sg26
I29
sa(dp57
g23
(I111
I107
tp58
sg25
I30
sg26
I18
sa(dp59
g23
(I185
I114
tp60
sg25
I31
sg26
I20
sa(dp61
g23
(I147
I61
tp62
sg25
I32
sg26
I51
sa(dp63
g23
(I73
I139
tp64
sg25
I33
sg26
I49
sa(dp65
g23
(I106
I73
tp66
sg25
I34
sg26
I41
sa(dp67
g23
(I130
I104
tp68
sg25
I35
sg26
I50
sa(dp69
g23
(I9
I12
tp70
sg25
I36
sg26
I34
sa(dp71
g23
(I64
I104
tp72
sg25
I37
sg26
I22
sa(dp73
g23
(I166
I71
tp74
sg25
I38
sg26
I23
sa(dp75
g23
(I38
I142
tp76
sg25
I39
sg26
I36
sa(dp77
g23
(I212
I137
tp78
sg25
I40
sg26
I38
sa(dp79
g23
(I42
I182
tp80
sg25
I41
sg26
I39
sa(dp81
g23
(I36
I104
tp82
sg25
I42
sg26
I2
sa(dp83
g23
(I138
I46
tp84
sg25
I43
sg26
I4
sa(dp85
g23
(I18
I234
tp86
sg25
I44
sg26
I3
sa(dp87
g23
(I74
I251
tp88
sg25
I45
sg26
I28
sa(dp89
g23
(I62
I219
tp90
sg25
I46
sg26
I28
sa(dp91
g23
(I99
I246
tp92
sg25
I47
sg26
I28
sa(dp93
g23
(I119
I142
tp94
sg25
I48
sg26
I26
sa(dp95
g23
(I205
I104
tp96
sg25
I49
sg26
I5
sa(dp97
g23
(I151
I145
tp98
sg25
I50
sg26
I30
sasS'debug'
p99
I01
sS'textureScale'
p100
F0.125
sb.